(dp1
S'rangeid'
p2
I122
sS'prevwidth'
p3
I583
sS'range_interval'
p4
(dp5
I64
I01
sI33
I01
sI37
I01
sI97
I01
sI40
I01
sI80
I01
sI42
I01
sI103
I01
sI110
I01
sI78
I01
sI48
I01
sI120
I01
sI106
I01
sI88
I01
sI58
I01
sI74
I01
sI94
I01
sI69
I01
ssS'interval'
p6
I00
sS'range'
p7
(dp8
I13
(lp9
I333
asI32
(lp10
I417
asI33
(lp11
I333
aI333
asI35
(lp12
I583
aI500
asI37
(lp13
I667
aI667
asI39
(lp14
I250
asI40
(lp15
I417
aI417
asI42
(lp16
I500
aI500
asI44
(lp17
I250
aI500
aI250
aI500
asI48
(lp18
I583
aI583
aI583
aI583
aI583
aI583
aI583
aI583
aI583
aI583
asI58
(lp19
I333
aI333
asI60
(lp20
I417
aI500
aI417
aI500
asI64
(lp21
I667
aI667
aI667
aI667
asI68
(lp22
I750
asI69
(lp23
I667
aI667
asI71
(lp24
I750
aI667
aI583
asI74
(lp25
I667
aI667
aI667
asI77
(lp26
I833
asI78
(lp27
I750
aI750
asI80
(lp28
I667
aI750
aI667
aI667
aI667
asI85
(lp29
I750
aI667
aI833
asI88
(lp30
I667
aI667
aI667
asI91
(lp31
I333
aI500
aI333
asI94
(lp32
I500
aI500
asI96
(lp33
I333
asI97
(lp34
I500
aI500
aI500
aI500
aI500
asI102
(lp35
I583
asI103
(lp36
I500
aI500
asI105
(lp37
I333
asI106
(lp38
I500
aI500
asI108
(lp39
I333
aI667
asI110
(lp40
I500
aI500
aI500
aI500
aI500
aI500
aI500
aI500
aI500
asI119
(lp41
I667
asI120
(lp42
I500
aI500
asI122
(lp43
I583
aI417
aI333
aI417
aI583
assS'prevcid'
p44
I126
s.