(dp1
S'rangeid'
p2
I123
sS'prevwidth'
p3
I583
sS'range_interval'
p4
(dp5
I64
I01
sI33
I01
sI67
I01
sI97
I01
sI37
I01
sI71
I01
sI40
I01
sI80
I01
sI42
I01
sI75
I01
sI78
I01
sI48
I01
sI107
I01
sI85
I01
sI105
I01
sI120
I01
sI58
I01
sI69
I01
ssS'interval'
p6
I00
sS'range'
p7
(dp8
I13
(lp9
I333
asI32
(lp10
I583
asI33
(lp11
I333
aI333
asI35
(lp12
I583
aI500
asI37
(lp13
I667
aI667
asI39
(lp14
I250
asI40
(lp15
I333
aI333
asI42
(lp16
I500
aI500
asI44
(lp17
I250
aI500
aI250
aI500
asI48
(lp18
I583
aI583
aI583
aI583
aI583
aI583
aI583
aI583
aI583
aI583
asI58
(lp19
I333
aI333
asI60
(lp20
I417
aI500
aI417
aI500
asI64
(lp21
I667
aI667
asI66
(lp22
I583
asI67
(lp23
I667
aI667
asI69
(lp24
I583
aI583
asI71
(lp25
I667
aI667
asI73
(lp26
I500
aI550
asI75
(lp27
I583
aI583
asI77
(lp28
I833
asI78
(lp29
I667
aI667
asI80
(lp30
I583
aI667
aI583
aI583
asI84
(lp31
I633
asI85
(lp32
I667
aI667
asI87
(lp33
I833
aI667
aI650
aI583
aI333
aI500
aI333
aI500
aI583
aI333
asI97
(lp34
I500
aI500
aI500
aI500
aI500
aI500
aI500
aI500
asI105
(lp35
I333
aI333
asI107
(lp36
I500
aI333
aI667
aI500
aI500
aI500
aI500
aI500
aI500
aI500
aI500
aI500
asI119
(lp37
I667
asI120
(lp38
I500
aI500
aI500
asI123
(lp39
I467
aI333
aI467
aI583
assS'prevcid'
p40
I126
s.